target datalayout = "e-m:e-p270:32:32-p271:32:32-p272:64:64-i64:64-i128:128-f80:128-n8:16:32:64-S128"
target triple = "x86_64-pc-linux-gnu"

%struct._lv_buttonmatrix_t = type { %struct._lv_obj_t, ptr, ptr, ptr, i32, i32, i32, i8 }
%struct._lv_obj_t = type { ptr, ptr, ptr, ptr, ptr, %struct.lv_area_t, i32, i16, i16 }
%struct.lv_area_t = type { i32, i32, i32, i32 }
%union.lv_style_value_t = type { ptr }

; Function Attrs: inlinehint nounwind uwtable
define internal i32 @lv_obj_get_style_pad_column(ptr noundef %0, i32 noundef %1) #3 {
  %3 = alloca ptr, align 8
  %4 = alloca i32, align 4
  %5 = alloca %union.lv_style_value_t, align 8
  store ptr %0, ptr %3, align 8, !tbaa !3
  store i32 %1, ptr %4, align 4, !tbaa !18
  call void @llvm.lifetime.start.p0(i64 8, ptr %5) #4
  %6 = load ptr, ptr %3, align 8, !tbaa !3
  %7 = load i32, ptr %4, align 4, !tbaa !18
  %8 = call ptr @lv_obj_get_style_prop(ptr noundef %6, i32 noundef %7, i8 noundef zeroext 21)
  %9 = getelementptr inbounds nuw %union.lv_style_value_t, ptr %5, i32 0, i32 0
  store ptr %8, ptr %9, align 8
  %10 = load i32, ptr %5, align 8, !tbaa !36
  call void @llvm.lifetime.end.p0(i64 8, ptr %5) #4
  ret i32 %10
}

; Function Attrs: inlinehint nounwind uwtable
define internal i32 @lv_obj_get_style_pad_row(ptr noundef %0, i32 noundef %1) #3 {
  %3 = alloca ptr, align 8
  %4 = alloca i32, align 4
  %5 = alloca %union.lv_style_value_t, align 8
  store ptr %0, ptr %3, align 8, !tbaa !3
  store i32 %1, ptr %4, align 4, !tbaa !18
  call void @llvm.lifetime.start.p0(i64 8, ptr %5) #4
  %6 = load ptr, ptr %3, align 8, !tbaa !3
  %7 = load i32, ptr %4, align 4, !tbaa !18
  %8 = call ptr @lv_obj_get_style_prop(ptr noundef %6, i32 noundef %7, i8 noundef zeroext 20)
  %9 = getelementptr inbounds nuw %union.lv_style_value_t, ptr %5, i32 0, i32 0
  store ptr %8, ptr %9, align 8
  %10 = load i32, ptr %5, align 8, !tbaa !36
  call void @llvm.lifetime.end.p0(i64 8, ptr %5) #4
  ret i32 %10
}

; Function Attrs: inlinehint nounwind uwtable
define internal void @lv_area_copy(ptr noundef %0, ptr noundef %1) #3 {
  %3 = alloca ptr, align 8
  %4 = alloca ptr, align 8
  store ptr %0, ptr %3, align 8, !tbaa !3
  store ptr %1, ptr %4, align 8, !tbaa !3
  %5 = load ptr, ptr %4, align 8, !tbaa !3
  %6 = getelementptr inbounds nuw %struct.lv_area_t, ptr %5, i32 0, i32 0
  %7 = load i32, ptr %6, align 4, !tbaa !29
  %8 = load ptr, ptr %3, align 8, !tbaa !3
  %9 = getelementptr inbounds nuw %struct.lv_area_t, ptr %8, i32 0, i32 0
  store i32 %7, ptr %9, align 4, !tbaa !29
  %10 = load ptr, ptr %4, align 8, !tbaa !3
  %11 = getelementptr inbounds nuw %struct.lv_area_t, ptr %10, i32 0, i32 1
  %12 = load i32, ptr %11, align 4, !tbaa !30
  %13 = load ptr, ptr %3, align 8, !tbaa !3
  %14 = getelementptr inbounds nuw %struct.lv_area_t, ptr %13, i32 0, i32 1
  store i32 %12, ptr %14, align 4, !tbaa !30
  %15 = load ptr, ptr %4, align 8, !tbaa !3
  %16 = getelementptr inbounds nuw %struct.lv_area_t, ptr %15, i32 0, i32 2
  %17 = load i32, ptr %16, align 4, !tbaa !31
  %18 = load ptr, ptr %3, align 8, !tbaa !3
  %19 = getelementptr inbounds nuw %struct.lv_area_t, ptr %18, i32 0, i32 2
  store i32 %17, ptr %19, align 4, !tbaa !31
  %20 = load ptr, ptr %4, align 8, !tbaa !3
  %21 = getelementptr inbounds nuw %struct.lv_area_t, ptr %20, i32 0, i32 3
  %22 = load i32, ptr %21, align 4, !tbaa !41
  %23 = load ptr, ptr %3, align 8, !tbaa !3
  %24 = getelementptr inbounds nuw %struct.lv_area_t, ptr %23, i32 0, i32 3
  store i32 %22, ptr %24, align 4, !tbaa !41
  ret void
}

; Function Attrs: nounwind uwtable
define internal void @invalidate_button_area(ptr noundef %0, i32 noundef %1) #0 {
  %3 = alloca ptr, align 8
  %4 = alloca i32, align 4
  %5 = alloca %struct.lv_area_t, align 4
  %6 = alloca %struct.lv_area_t, align 4
  %7 = alloca ptr, align 8
  %8 = alloca i32, align 4
  %9 = alloca i32, align 4
  %10 = alloca i32, align 4
  %11 = alloca i32, align 4
  store ptr %0, ptr %3, align 8, !tbaa !3
  store i32 %1, ptr %4, align 4, !tbaa !18
  %12 = load i32, ptr %4, align 4, !tbaa !18
  %13 = icmp eq i32 %12, 65535
  br i1 %13, label %14, label %15

14:                                               ; preds = %2
  br label %112

15:                                               ; preds = %2
  call void @llvm.lifetime.start.p0(i64 16, ptr %5) #4
  call void @llvm.lifetime.start.p0(i64 16, ptr %6) #4
  call void @llvm.lifetime.start.p0(i64 8, ptr %7) #4
  %16 = load ptr, ptr %3, align 8, !tbaa !3
  store ptr %16, ptr %7, align 8, !tbaa !3
  %17 = load i32, ptr %4, align 4, !tbaa !18
  %18 = load ptr, ptr %7, align 8, !tbaa !3
  %19 = getelementptr inbounds nuw %struct._lv_buttonmatrix_t, ptr %18, i32 0, i32 4
  %20 = load i32, ptr %19, align 8, !tbaa !7
  %21 = icmp uge i32 %17, %20
  br i1 %21, label %22, label %23

22:                                               ; preds = %15
  store i32 1, ptr %8, align 4
  br label %110

23:                                               ; preds = %15
  %24 = load ptr, ptr %7, align 8, !tbaa !3
  %25 = getelementptr inbounds nuw %struct._lv_buttonmatrix_t, ptr %24, i32 0, i32 2
  %26 = load ptr, ptr %25, align 8, !tbaa !15
  %27 = load i32, ptr %4, align 4, !tbaa !18
  %28 = zext i32 %27 to i64
  %29 = getelementptr inbounds nuw %struct.lv_area_t, ptr %26, i64 %28
  call void @lv_area_copy(ptr noundef %5, ptr noundef %29)
  %30 = load ptr, ptr %3, align 8, !tbaa !3
  call void @lv_obj_get_coords(ptr noundef %30, ptr noundef %6)
  call void @llvm.lifetime.start.p0(i64 4, ptr %9) #4
  %31 = load ptr, ptr %3, align 8, !tbaa !3
  %32 = call i32 @lv_obj_get_style_pad_row(ptr noundef %31, i32 noundef 0)
  store i32 %32, ptr %9, align 4, !tbaa !18
  call void @llvm.lifetime.start.p0(i64 4, ptr %10) #4
  %33 = load ptr, ptr %3, align 8, !tbaa !3
  %34 = call i32 @lv_obj_get_style_pad_column(ptr noundef %33, i32 noundef 0)
  store i32 %34, ptr %10, align 4, !tbaa !18
  call void @llvm.lifetime.start.p0(i64 4, ptr %11) #4
  %35 = load ptr, ptr %3, align 8, !tbaa !3
  %36 = call ptr @lv_obj_get_display(ptr noundef %35)
  %37 = call i32 @lv_display_get_dpi(ptr noundef %36)
  store i32 %37, ptr %11, align 4, !tbaa !18
  %38 = load i32, ptr %9, align 4, !tbaa !18
  %39 = load i32, ptr %11, align 4, !tbaa !18
  %40 = sdiv i32 %39, 10
  %41 = icmp sgt i32 %38, %40
  br i1 %41, label %42, label %44

42:                                               ; preds = %23
  %43 = load i32, ptr %9, align 4, !tbaa !18
  br label %47

44:                                               ; preds = %23
  %45 = load i32, ptr %11, align 4, !tbaa !18
  %46 = sdiv i32 %45, 10
  br label %47

47:                                               ; preds = %44, %42
  %48 = phi i32 [ %43, %42 ], [ %46, %44 ]
  store i32 %48, ptr %9, align 4, !tbaa !18
  %49 = load i32, ptr %10, align 4, !tbaa !18
  %50 = load i32, ptr %11, align 4, !tbaa !18
  %51 = sdiv i32 %50, 10
  %52 = icmp sgt i32 %49, %51
  br i1 %52, label %53, label %55

53:                                               ; preds = %47
  %54 = load i32, ptr %10, align 4, !tbaa !18
  br label %58

55:                                               ; preds = %47
  %56 = load i32, ptr %11, align 4, !tbaa !18
  %57 = sdiv i32 %56, 10
  br label %58

58:                                               ; preds = %55, %53
  %59 = phi i32 [ %54, %53 ], [ %57, %55 ]
  store i32 %59, ptr %10, align 4, !tbaa !18
  %60 = getelementptr inbounds nuw %struct.lv_area_t, ptr %6, i32 0, i32 0
  %61 = load i32, ptr %60, align 4, !tbaa !29
  %62 = load i32, ptr %9, align 4, !tbaa !18
  %63 = sub nsw i32 %61, %62
  %64 = getelementptr inbounds nuw %struct.lv_area_t, ptr %5, i32 0, i32 0
  %65 = load i32, ptr %64, align 4, !tbaa !29
  %66 = add nsw i32 %65, %63
  store i32 %66, ptr %64, align 4, !tbaa !29
  %67 = getelementptr inbounds nuw %struct.lv_area_t, ptr %6, i32 0, i32 1
  %68 = load i32, ptr %67, align 4, !tbaa !30
  %69 = load i32, ptr %10, align 4, !tbaa !18
  %70 = sub nsw i32 %68, %69
  %71 = getelementptr inbounds nuw %struct.lv_area_t, ptr %5, i32 0, i32 1
  %72 = load i32, ptr %71, align 4, !tbaa !30
  %73 = add nsw i32 %72, %70
  store i32 %73, ptr %71, align 4, !tbaa !30
  %74 = getelementptr inbounds nuw %struct.lv_area_t, ptr %6, i32 0, i32 0
  %75 = load i32, ptr %74, align 4, !tbaa !29
  %76 = load i32, ptr %9, align 4, !tbaa !18
  %77 = add nsw i32 %75, %76
  %78 = getelementptr inbounds nuw %struct.lv_area_t, ptr %5, i32 0, i32 2
  %79 = load i32, ptr %78, align 4, !tbaa !31
  %80 = add nsw i32 %79, %77
  store i32 %80, ptr %78, align 4, !tbaa !31
  %81 = getelementptr inbounds nuw %struct.lv_area_t, ptr %6, i32 0, i32 1
  %82 = load i32, ptr %81, align 4, !tbaa !30
  %83 = load i32, ptr %10, align 4, !tbaa !18
  %84 = add nsw i32 %82, %83
  %85 = getelementptr inbounds nuw %struct.lv_area_t, ptr %5, i32 0, i32 3
  %86 = load i32, ptr %85, align 4, !tbaa !41
  %87 = add nsw i32 %86, %84
  store i32 %87, ptr %85, align 4, !tbaa !41
  %88 = load i32, ptr %4, align 4, !tbaa !18
  %89 = load ptr, ptr %7, align 8, !tbaa !3
  %90 = getelementptr inbounds nuw %struct._lv_buttonmatrix_t, ptr %89, i32 0, i32 6
  %91 = load i32, ptr %90, align 8, !tbaa !14
  %92 = icmp eq i32 %88, %91
  br i1 %92, label %93, label %108

93:                                               ; preds = %58
  %94 = load ptr, ptr %7, align 8, !tbaa !3
  %95 = getelementptr inbounds nuw %struct._lv_buttonmatrix_t, ptr %94, i32 0, i32 3
  %96 = load ptr, ptr %95, align 8, !tbaa !16
  %97 = load i32, ptr %4, align 4, !tbaa !18
  %98 = zext i32 %97 to i64
  %99 = getelementptr inbounds nuw i32, ptr %96, i64 %98
  %100 = load i32, ptr %99, align 4, !tbaa !18
  %101 = and i32 %100, 1024
  %102 = icmp ne i32 %101, 0
  br i1 %102, label %103, label %108

103:                                              ; preds = %93
  %104 = call i32 @lv_area_get_height(ptr noundef %5)
  %105 = getelementptr inbounds nuw %struct.lv_area_t, ptr %5, i32 0, i32 1
  %106 = load i32, ptr %105, align 4, !tbaa !30
  %107 = sub nsw i32 %106, %104
  store i32 %107, ptr %105, align 4, !tbaa !30
  br label %108

108:                                              ; preds = %103, %93, %58
  %109 = load ptr, ptr %3, align 8, !tbaa !3
  call void @lv_obj_invalidate_area(ptr noundef %109, ptr noundef %5)
  call void @llvm.lifetime.end.p0(i64 4, ptr %11) #4
  call void @llvm.lifetime.end.p0(i64 4, ptr %10) #4
  call void @llvm.lifetime.end.p0(i64 4, ptr %9) #4
  store i32 0, ptr %8, align 4
  br label %110

110:                                              ; preds = %108, %22
  call void @llvm.lifetime.end.p0(i64 8, ptr %7) #4
  call void @llvm.lifetime.end.p0(i64 16, ptr %6) #4
  call void @llvm.lifetime.end.p0(i64 16, ptr %5) #4
  %111 = load i32, ptr %8, align 4
  switch i32 %111, label %113 [
    i32 0, label %112
    i32 1, label %112
  ]

112:                                              ; preds = %14, %110, %110
  ret void

113:                                              ; preds = %110
  unreachable
}