; Function Attrs: nounwind uwtable
define internal fastcc void @invalidate_button_area(ptr noundef %0, i32 noundef %1) unnamed_addr #0 {
  %3 = alloca %struct.lv_area_t, align 4
  %4 = alloca %struct.lv_area_t, align 4
  %5 = icmp eq i32 %1, 65535
  br i1 %5, label %58, label %6

6:                                                ; preds = %2
  call void @llvm.lifetime.start.p0(i64 16, ptr nonnull %3) #7
  call void @llvm.lifetime.start.p0(i64 16, ptr nonnull %4) #7
  %7 = getelementptr inbounds nuw i8, ptr %0, i64 88
  %8 = load i32, ptr %7, align 8, !tbaa !3
  %.not = icmp ult i32 %1, %8
  br i1 %.not, label %9, label %57

9:                                                ; preds = %6
  %10 = getelementptr inbounds nuw i8, ptr %0, i64 72
  %11 = load ptr, ptr %10, align 8, !tbaa !14
  %12 = zext i32 %1 to i64
  %13 = getelementptr inbounds nuw %struct.lv_area_t, ptr %11, i64 %12
  %14 = load i32, ptr %13, align 4, !tbaa !27
  %15 = getelementptr inbounds nuw i8, ptr %13, i64 4
  %16 = load i32, ptr %15, align 4, !tbaa !28
  %17 = getelementptr inbounds nuw i8, ptr %3, i64 4
  %18 = getelementptr inbounds nuw i8, ptr %13, i64 8
  %19 = load i32, ptr %18, align 4, !tbaa !29
  %20 = getelementptr inbounds nuw i8, ptr %3, i64 8
  %21 = getelementptr inbounds nuw i8, ptr %13, i64 12
  %22 = load i32, ptr %21, align 4, !tbaa !37
  %23 = getelementptr inbounds nuw i8, ptr %3, i64 12
  call void @lv_obj_get_coords(ptr noundef nonnull %0, ptr noundef nonnull %4) #7
  %24 = call ptr @lv_obj_get_style_prop(ptr noundef nonnull %0, i32 noundef 0, i8 noundef zeroext 20) #7
  %25 = ptrtoint ptr %24 to i64
  %.sroa.0.0.extract.trunc.i = trunc i64 %25 to i32
  %26 = call ptr @lv_obj_get_style_prop(ptr noundef nonnull %0, i32 noundef 0, i8 noundef zeroext 21) #7
  %27 = ptrtoint ptr %26 to i64
  %.sroa.0.0.extract.trunc.i30 = trunc i64 %27 to i32
  %28 = call ptr @lv_obj_get_display(ptr noundef nonnull %0) #7
  %29 = call i32 @lv_display_get_dpi(ptr noundef %28) #7
  %30 = sdiv i32 %29, 10
  %. = call i32 @llvm.smax.i32(i32 %30, i32 %.sroa.0.0.extract.trunc.i)
  %31 = call i32 @llvm.smax.i32(i32 %30, i32 %.sroa.0.0.extract.trunc.i30)
  %32 = load i32, ptr %4, align 4, !tbaa !27
  %33 = sub i32 %32, %.
  %34 = add nsw i32 %33, %14
  store i32 %34, ptr %3, align 4, !tbaa !27
  %35 = getelementptr inbounds nuw i8, ptr %4, i64 4
  %36 = load i32, ptr %35, align 4, !tbaa !28
  %37 = sub i32 %36, %31
  %38 = add nsw i32 %37, %16
  store i32 %38, ptr %17, align 4, !tbaa !28
  %39 = add nsw i32 %., %32
  %40 = add nsw i32 %39, %19
  store i32 %40, ptr %20, align 4, !tbaa !29
  %41 = add nsw i32 %36, %31
  %42 = add nsw i32 %41, %22
  store i32 %42, ptr %23, align 4, !tbaa !37
  %43 = getelementptr inbounds nuw i8, ptr %0, i64 96
  %44 = load i32, ptr %43, align 8, !tbaa !13
  %45 = icmp eq i32 %1, %44
  br i1 %45, label %46, label %56

46:                                               ; preds = %9
  %47 = getelementptr inbounds nuw i8, ptr %0, i64 80
  %48 = load ptr, ptr %47, align 8, !tbaa !15
  %49 = getelementptr inbounds nuw i32, ptr %48, i64 %12
  %50 = load i32, ptr %49, align 4, !tbaa !21
  %51 = and i32 %50, 1024
  %.not29 = icmp eq i32 %51, 0
  br i1 %.not29, label %56, label %52

52:                                               ; preds = %46
  %53 = call i32 @lv_area_get_height(ptr noundef nonnull %3) #7
  %54 = load i32, ptr %17, align 4, !tbaa !28
  %55 = sub nsw i32 %54, %53
  store i32 %55, ptr %17, align 4, !tbaa !28
  br label %56

56:                                               ; preds = %52, %46, %9
  call void @lv_obj_invalidate_area(ptr noundef nonnull %0, ptr noundef nonnull %3) #7
  br label %57

57:                                               ; preds = %6, %56
  call void @llvm.lifetime.end.p0(i64 16, ptr nonnull %4) #7
  call void @llvm.lifetime.end.p0(i64 16, ptr nonnull %3) #7
  br label %58

58:                                               ; preds = %2, %57
  ret void
}